target datalayout = "e-m:e-p270:32:32-p271:32:32-p272:64:64-i64:64-i128:128-f80:128-n8:16:32:64-S128"
target triple = "x86_64-pc-linux-gnu"

%struct.IndexAmRoutine = type { i32, i16, i16, i16, i8, i8, i8, i8, i8, i8, i8, i8, i8, i8, i8, i8, i8, i8, i8, i8, i8, i32, ptr, ptr, ptr, ptr, ptr, ptr, ptr, ptr, ptr, ptr, ptr, ptr, ptr, ptr, ptr, ptr, ptr, ptr, ptr, ptr, ptr, ptr, ptr, ptr, ptr, ptr }
%struct.Node = type { i32 }

; Function Attrs: inlinehint nounwind uwtable
define internal i64 @PointerGetDatum(ptr noundef %0) #2 {
  %2 = alloca ptr, align 8
  store ptr %0, ptr %2, align 8
  %3 = load ptr, ptr %2, align 8
  %4 = ptrtoint ptr %3 to i64
  ret i64 %4
}

; Function Attrs: inlinehint nounwind uwtable
define internal ptr @newNode(i64 noundef %0, i32 noundef %1) #2 {
  %3 = alloca i64, align 8
  %4 = alloca i32, align 4
  %5 = alloca ptr, align 8
  store i64 %0, ptr %3, align 8
  store i32 %1, ptr %4, align 4
  call void @llvm.lifetime.start.p0(i64 8, ptr %5) #7
  %6 = load i64, ptr %3, align 8
  %7 = call ptr @palloc0(i64 noundef %6)
  store ptr %7, ptr %5, align 8
  %8 = load i32, ptr %4, align 4
  %9 = load ptr, ptr %5, align 8
  %10 = getelementptr inbounds nuw %struct.Node, ptr %9, i32 0, i32 0
  store i32 %8, ptr %10, align 4
  %11 = load ptr, ptr %5, align 8
  call void @llvm.lifetime.end.p0(i64 8, ptr %5) #7
  ret ptr %11
}

; Function Attrs: nounwind uwtable
define dso_local i64 @gisthandler(ptr noundef %0) #0 {
  %2 = alloca ptr, align 8
  %3 = alloca ptr, align 8
  store ptr %0, ptr %2, align 8
  call void @llvm.lifetime.start.p0(i64 8, ptr %3) #7
  %4 = call ptr @newNode(i64 noundef 240, i32 noundef 437)
  store ptr %4, ptr %3, align 8
  %5 = load ptr, ptr %3, align 8
  %6 = getelementptr inbounds nuw %struct.IndexAmRoutine, ptr %5, i32 0, i32 1
  store i16 0, ptr %6, align 4
  %7 = load ptr, ptr %3, align 8
  %8 = getelementptr inbounds nuw %struct.IndexAmRoutine, ptr %7, i32 0, i32 2
  store i16 12, ptr %8, align 2
  %9 = load ptr, ptr %3, align 8
  %10 = getelementptr inbounds nuw %struct.IndexAmRoutine, ptr %9, i32 0, i32 3
  store i16 10, ptr %10, align 8
  %11 = load ptr, ptr %3, align 8
  %12 = getelementptr inbounds nuw %struct.IndexAmRoutine, ptr %11, i32 0, i32 4
  store i8 0, ptr %12, align 2
  %13 = load ptr, ptr %3, align 8
  %14 = getelementptr inbounds nuw %struct.IndexAmRoutine, ptr %13, i32 0, i32 5
  store i8 1, ptr %14, align 1
  %15 = load ptr, ptr %3, align 8
  %16 = getelementptr inbounds nuw %struct.IndexAmRoutine, ptr %15, i32 0, i32 6
  store i8 0, ptr %16, align 4
  %17 = load ptr, ptr %3, align 8
  %18 = getelementptr inbounds nuw %struct.IndexAmRoutine, ptr %17, i32 0, i32 7
  store i8 0, ptr %18, align 1
  %19 = load ptr, ptr %3, align 8
  %20 = getelementptr inbounds nuw %struct.IndexAmRoutine, ptr %19, i32 0, i32 8
  store i8 1, ptr %20, align 2
  %21 = load ptr, ptr %3, align 8
  %22 = getelementptr inbounds nuw %struct.IndexAmRoutine, ptr %21, i32 0, i32 9
  store i8 1, ptr %22, align 1
  %23 = load ptr, ptr %3, align 8
  %24 = getelementptr inbounds nuw %struct.IndexAmRoutine, ptr %23, i32 0, i32 10
  store i8 0, ptr %24, align 8
  %25 = load ptr, ptr %3, align 8
  %26 = getelementptr inbounds nuw %struct.IndexAmRoutine, ptr %25, i32 0, i32 11
  store i8 1, ptr %26, align 1
  %27 = load ptr, ptr %3, align 8
  %28 = getelementptr inbounds nuw %struct.IndexAmRoutine, ptr %27, i32 0, i32 12
  store i8 1, ptr %28, align 2
  %29 = load ptr, ptr %3, align 8
  %30 = getelementptr inbounds nuw %struct.IndexAmRoutine, ptr %29, i32 0, i32 13
  store i8 1, ptr %30, align 1
  %31 = load ptr, ptr %3, align 8
  %32 = getelementptr inbounds nuw %struct.IndexAmRoutine, ptr %31, i32 0, i32 14
  store i8 1, ptr %32, align 4
  %33 = load ptr, ptr %3, align 8
  %34 = getelementptr inbounds nuw %struct.IndexAmRoutine, ptr %33, i32 0, i32 15
  store i8 0, ptr %34, align 1
  %35 = load ptr, ptr %3, align 8
  %36 = getelementptr inbounds nuw %struct.IndexAmRoutine, ptr %35, i32 0, i32 16
  store i8 0, ptr %36, align 2
  %37 = load ptr, ptr %3, align 8
  %38 = getelementptr inbounds nuw %struct.IndexAmRoutine, ptr %37, i32 0, i32 17
  store i8 1, ptr %38, align 1
  %39 = load ptr, ptr %3, align 8
  %40 = getelementptr inbounds nuw %struct.IndexAmRoutine, ptr %39, i32 0, i32 18
  store i8 0, ptr %40, align 8
  %41 = load ptr, ptr %3, align 8
  %42 = getelementptr inbounds nuw %struct.IndexAmRoutine, ptr %41, i32 0, i32 19
  store i8 0, ptr %42, align 1
  %43 = load ptr, ptr %3, align 8
  %44 = getelementptr inbounds nuw %struct.IndexAmRoutine, ptr %43, i32 0, i32 20
  store i8 3, ptr %44, align 2
  %45 = load ptr, ptr %3, align 8
  %46 = getelementptr inbounds nuw %struct.IndexAmRoutine, ptr %45, i32 0, i32 21
  store i32 0, ptr %46, align 4
  %47 = load ptr, ptr %3, align 8
  %48 = getelementptr inbounds nuw %struct.IndexAmRoutine, ptr %47, i32 0, i32 22
  store ptr @gistbuild, ptr %48, align 8
  %49 = load ptr, ptr %3, align 8
  %50 = getelementptr inbounds nuw %struct.IndexAmRoutine, ptr %49, i32 0, i32 23
  store ptr @gistbuildempty, ptr %50, align 8
  %51 = load ptr, ptr %3, align 8
  %52 = getelementptr inbounds nuw %struct.IndexAmRoutine, ptr %51, i32 0, i32 24
  store ptr @gistinsert, ptr %52, align 8
  %53 = load ptr, ptr %3, align 8
  %54 = getelementptr inbounds nuw %struct.IndexAmRoutine, ptr %53, i32 0, i32 25
  store ptr null, ptr %54, align 8
  %55 = load ptr, ptr %3, align 8
  %56 = getelementptr inbounds nuw %struct.IndexAmRoutine, ptr %55, i32 0, i32 26
  store ptr @gistbulkdelete, ptr %56, align 8
  %57 = load ptr, ptr %3, align 8
  %58 = getelementptr inbounds nuw %struct.IndexAmRoutine, ptr %57, i32 0, i32 27
  store ptr @gistvacuumcleanup, ptr %58, align 8
  %59 = load ptr, ptr %3, align 8
  %60 = getelementptr inbounds nuw %struct.IndexAmRoutine, ptr %59, i32 0, i32 28
  store ptr @gistcanreturn, ptr %60, align 8
  %61 = load ptr, ptr %3, align 8
  %62 = getelementptr inbounds nuw %struct.IndexAmRoutine, ptr %61, i32 0, i32 29
  store ptr @gistcostestimate, ptr %62, align 8
  %63 = load ptr, ptr %3, align 8
  %64 = getelementptr inbounds nuw %struct.IndexAmRoutine, ptr %63, i32 0, i32 30
  store ptr null, ptr %64, align 8
  %65 = load ptr, ptr %3, align 8
  %66 = getelementptr inbounds nuw %struct.IndexAmRoutine, ptr %65, i32 0, i32 31
  store ptr @gistoptions, ptr %66, align 8
  %67 = load ptr, ptr %3, align 8
  %68 = getelementptr inbounds nuw %struct.IndexAmRoutine, ptr %67, i32 0, i32 32
  store ptr @gistproperty, ptr %68, align 8
  %69 = load ptr, ptr %3, align 8
  %70 = getelementptr inbounds nuw %struct.IndexAmRoutine, ptr %69, i32 0, i32 33
  store ptr null, ptr %70, align 8
  %71 = load ptr, ptr %3, align 8
  %72 = getelementptr inbounds nuw %struct.IndexAmRoutine, ptr %71, i32 0, i32 34
  store ptr @gistvalidate, ptr %72, align 8
  %73 = load ptr, ptr %3, align 8
  %74 = getelementptr inbounds nuw %struct.IndexAmRoutine, ptr %73, i32 0, i32 35
  store ptr @gistadjustmembers, ptr %74, align 8
  %75 = load ptr, ptr %3, align 8
  %76 = getelementptr inbounds nuw %struct.IndexAmRoutine, ptr %75, i32 0, i32 36
  store ptr @gistbeginscan, ptr %76, align 8
  %77 = load ptr, ptr %3, align 8
  %78 = getelementptr inbounds nuw %struct.IndexAmRoutine, ptr %77, i32 0, i32 37
  store ptr @gistrescan, ptr %78, align 8
  %79 = load ptr, ptr %3, align 8
  %80 = getelementptr inbounds nuw %struct.IndexAmRoutine, ptr %79, i32 0, i32 38
  store ptr @gistgettuple, ptr %80, align 8
  %81 = load ptr, ptr %3, align 8
  %82 = getelementptr inbounds nuw %struct.IndexAmRoutine, ptr %81, i32 0, i32 39
  store ptr @gistgetbitmap, ptr %82, align 8
  %83 = load ptr, ptr %3, align 8
  %84 = getelementptr inbounds nuw %struct.IndexAmRoutine, ptr %83, i32 0, i32 40
  store ptr @gistendscan, ptr %84, align 8
  %85 = load ptr, ptr %3, align 8
  %86 = getelementptr inbounds nuw %struct.IndexAmRoutine, ptr %85, i32 0, i32 41
  store ptr null, ptr %86, align 8
  %87 = load ptr, ptr %3, align 8
  %88 = getelementptr inbounds nuw %struct.IndexAmRoutine, ptr %87, i32 0, i32 42
  store ptr null, ptr %88, align 8
  %89 = load ptr, ptr %3, align 8
  %90 = getelementptr inbounds nuw %struct.IndexAmRoutine, ptr %89, i32 0, i32 43
  store ptr null, ptr %90, align 8
  %91 = load ptr, ptr %3, align 8
  %92 = getelementptr inbounds nuw %struct.IndexAmRoutine, ptr %91, i32 0, i32 44
  store ptr null, ptr %92, align 8
  %93 = load ptr, ptr %3, align 8
  %94 = getelementptr inbounds nuw %struct.IndexAmRoutine, ptr %93, i32 0, i32 45
  store ptr null, ptr %94, align 8
  %95 = load ptr, ptr %3, align 8
  %96 = getelementptr inbounds nuw %struct.IndexAmRoutine, ptr %95, i32 0, i32 46
  store ptr null, ptr %96, align 8
  %97 = load ptr, ptr %3, align 8
  %98 = getelementptr inbounds nuw %struct.IndexAmRoutine, ptr %97, i32 0, i32 47
  store ptr @gisttranslatecmptype, ptr %98, align 8
  %99 = load ptr, ptr %3, align 8
  %100 = call i64 @PointerGetDatum(ptr noundef %99)
  call void @llvm.lifetime.end.p0(i64 8, ptr %3) #7
  ret i64 %100
}