; Function Attrs: nounwind uwtable
define dso_local noundef i64 @gisthandler(ptr noundef readnone captures(none) %0) local_unnamed_addr #0 {
  %2 = tail call noundef ptr @palloc0(i64 noundef 240) #8
  store i32 437, ptr %2, align 4
  %3 = getelementptr inbounds nuw i8, ptr %2, i64 4
  store i16 0, ptr %3, align 4
  %4 = getelementptr inbounds nuw i8, ptr %2, i64 6
  store i16 12, ptr %4, align 2
  %5 = getelementptr inbounds nuw i8, ptr %2, i64 8
  store i16 10, ptr %5, align 8
  %6 = getelementptr inbounds nuw i8, ptr %2, i64 10
  store i8 0, ptr %6, align 2
  %7 = getelementptr inbounds nuw i8, ptr %2, i64 11
  store i8 1, ptr %7, align 1
  %8 = getelementptr inbounds nuw i8, ptr %2, i64 12
  store i8 0, ptr %8, align 4
  %9 = getelementptr inbounds nuw i8, ptr %2, i64 13
  store i8 0, ptr %9, align 1
  %10 = getelementptr inbounds nuw i8, ptr %2, i64 14
  store i8 1, ptr %10, align 2
  %11 = getelementptr inbounds nuw i8, ptr %2, i64 15
  store i8 1, ptr %11, align 1
  %12 = getelementptr inbounds nuw i8, ptr %2, i64 16
  store i8 0, ptr %12, align 8
  %13 = getelementptr inbounds nuw i8, ptr %2, i64 17
  %14 = getelementptr inbounds nuw i8, ptr %2, i64 21
  store i32 16843009, ptr %13, align 1
  store i8 0, ptr %14, align 1
  %15 = getelementptr inbounds nuw i8, ptr %2, i64 22
  store i8 0, ptr %15, align 2
  %16 = getelementptr inbounds nuw i8, ptr %2, i64 23
  store i8 1, ptr %16, align 1
  %17 = getelementptr inbounds nuw i8, ptr %2, i64 24
  store i8 0, ptr %17, align 8
  %18 = getelementptr inbounds nuw i8, ptr %2, i64 25
  store i8 0, ptr %18, align 1
  %19 = getelementptr inbounds nuw i8, ptr %2, i64 26
  store i8 3, ptr %19, align 2
  %20 = getelementptr inbounds nuw i8, ptr %2, i64 28
  store i32 0, ptr %20, align 4
  %21 = getelementptr inbounds nuw i8, ptr %2, i64 32
  store ptr @gistbuild, ptr %21, align 8
  %22 = getelementptr inbounds nuw i8, ptr %2, i64 40
  store ptr @gistbuildempty, ptr %22, align 8
  %23 = getelementptr inbounds nuw i8, ptr %2, i64 48
  store ptr @gistinsert, ptr %23, align 8
  %24 = getelementptr inbounds nuw i8, ptr %2, i64 56
  store ptr null, ptr %24, align 8
  %25 = getelementptr inbounds nuw i8, ptr %2, i64 64
  store ptr @gistbulkdelete, ptr %25, align 8
  %26 = getelementptr inbounds nuw i8, ptr %2, i64 72
  store ptr @gistvacuumcleanup, ptr %26, align 8
  %27 = getelementptr inbounds nuw i8, ptr %2, i64 80
  store ptr @gistcanreturn, ptr %27, align 8
  %28 = getelementptr inbounds nuw i8, ptr %2, i64 88
  store ptr @gistcostestimate, ptr %28, align 8
  %29 = getelementptr inbounds nuw i8, ptr %2, i64 96
  store ptr null, ptr %29, align 8
  %30 = getelementptr inbounds nuw i8, ptr %2, i64 104
  store ptr @gistoptions, ptr %30, align 8
  %31 = getelementptr inbounds nuw i8, ptr %2, i64 112
  store ptr @gistproperty, ptr %31, align 8
  %32 = getelementptr inbounds nuw i8, ptr %2, i64 120
  store ptr null, ptr %32, align 8
  %33 = getelementptr inbounds nuw i8, ptr %2, i64 128
  store ptr @gistvalidate, ptr %33, align 8
  %34 = getelementptr inbounds nuw i8, ptr %2, i64 136
  store ptr @gistadjustmembers, ptr %34, align 8
  %35 = getelementptr inbounds nuw i8, ptr %2, i64 144
  store ptr @gistbeginscan, ptr %35, align 8
  %36 = getelementptr inbounds nuw i8, ptr %2, i64 152
  store ptr @gistrescan, ptr %36, align 8
  %37 = getelementptr inbounds nuw i8, ptr %2, i64 160
  store ptr @gistgettuple, ptr %37, align 8
  %38 = getelementptr inbounds nuw i8, ptr %2, i64 168
  store ptr @gistgetbitmap, ptr %38, align 8
  %39 = getelementptr inbounds nuw i8, ptr %2, i64 176
  store ptr @gistendscan, ptr %39, align 8
  %40 = getelementptr inbounds nuw i8, ptr %2, i64 184
  %41 = getelementptr inbounds nuw i8, ptr %2, i64 232
  tail call void @llvm.memset.p0.i64(ptr noundef nonnull align 8 dereferenceable(48) %40, i8 0, i64 48, i1 false)
  store ptr @gisttranslatecmptype, ptr %41, align 8
  %42 = ptrtoint ptr %2 to i64
  ret i64 %42
}